target datalayout = "e-m:e-p270:32:32-p271:32:32-p272:64:64-i64:64-i128:128-f80:128-n8:16:32:64-S128"
target triple = "x86_64-pc-linux-gnu"

@.str = private unnamed_addr constant [2 x i8] c"#\00", align 1

; Function Attrs: nounwind uwtable
define zeroext i1 @lv_text_is_cmd(ptr noundef %0, i32 noundef %1) #0 {
  %3 = alloca ptr, align 8
  %4 = alloca i32, align 4
  %5 = alloca i8, align 1
  store ptr %0, ptr %3, align 8, !tbaa !3
  store i32 %1, ptr %4, align 4, !tbaa !8
  call void @llvm.lifetime.start.p0(i64 1, ptr %5) #5
  store i8 0, ptr %5, align 1, !tbaa !25
  %6 = load i32, ptr %4, align 4, !tbaa !8
  %7 = load i8, ptr @.str, align 1, !tbaa !7
  %8 = sext i8 %7 to i32
  %9 = icmp eq i32 %6, %8
  br i1 %9, label %10, label %31

10:                                               ; preds = %2
  %11 = load ptr, ptr %3, align 8, !tbaa !3
  %12 = load i32, ptr %11, align 4, !tbaa !8
  %13 = icmp eq i32 %12, 0
  br i1 %13, label %14, label %16

14:                                               ; preds = %10
  %15 = load ptr, ptr %3, align 8, !tbaa !3
  store i32 1, ptr %15, align 4, !tbaa !8
  store i8 1, ptr %5, align 1, !tbaa !25
  br label %30

16:                                               ; preds = %10
  %17 = load ptr, ptr %3, align 8, !tbaa !3
  %18 = load i32, ptr %17, align 4, !tbaa !8
  %19 = icmp eq i32 %18, 0
  br i1 %19, label %20, label %22

20:                                               ; preds = %16
  %21 = load ptr, ptr %3, align 8, !tbaa !3
  store i32 0, ptr %21, align 4, !tbaa !8
  br label %29

22:                                               ; preds = %16
  %23 = load ptr, ptr %3, align 8, !tbaa !3
  %24 = load i32, ptr %23, align 4, !tbaa !8
  %25 = icmp eq i32 %24, 2
  br i1 %25, label %26, label %28

26:                                               ; preds = %22
  %27 = load ptr, ptr %3, align 8, !tbaa !3
  store i32 0, ptr %27, align 4, !tbaa !8
  store i8 1, ptr %5, align 1, !tbaa !25
  br label %28

28:                                               ; preds = %26, %22
  br label %29

29:                                               ; preds = %28, %20
  br label %30

30:                                               ; preds = %29, %14
  br label %31

31:                                               ; preds = %30, %2
  %32 = load ptr, ptr %3, align 8, !tbaa !3
  %33 = load i32, ptr %32, align 4, !tbaa !8
  %34 = icmp eq i32 %33, 1
  br i1 %34, label %35, label %41

35:                                               ; preds = %31
  %36 = load i32, ptr %4, align 4, !tbaa !8
  %37 = icmp eq i32 %36, 32
  br i1 %37, label %38, label %40

38:                                               ; preds = %35
  %39 = load ptr, ptr %3, align 8, !tbaa !3
  store i32 2, ptr %39, align 4, !tbaa !8
  br label %40

40:                                               ; preds = %38, %35
  store i8 1, ptr %5, align 1, !tbaa !25
  br label %41

41:                                               ; preds = %40, %31
  %42 = load i8, ptr %5, align 1, !tbaa !25, !range !27, !noundef !28
  %43 = trunc i8 %42 to i1
  call void @llvm.lifetime.end.p0(i64 1, ptr %5) #5
  ret i1 %43
}