; Function Attrs: mustprogress nofree norecurse nosync nounwind willreturn memory(argmem: readwrite) uwtable
define noundef zeroext i1 @lv_text_is_cmd(ptr nocapture noundef %0, i32 noundef %1) local_unnamed_addr #3 {
  %3 = icmp eq i32 %1, 35
  %4 = load i32, ptr %0, align 4, !tbaa !6
  br i1 %3, label %5, label %6

5:                                                ; preds = %2
  switch i32 %4, label %11 [
    i32 0, label %.thread14
    i32 2, label %.thread12
    i32 1, label %.thread17
  ]

.thread14:                                        ; preds = %5
  store i32 1, ptr %0, align 4, !tbaa !6
  br label %11

.thread12:                                        ; preds = %5
  store i32 0, ptr %0, align 4, !tbaa !6
  br label %11

6:                                                ; preds = %2
  %7 = icmp eq i32 %4, 1
  br i1 %7, label %8, label %11

.thread17:                                        ; preds = %5
  br label %11

8:                                                ; preds = %6
  %9 = icmp eq i32 %1, 32
  br i1 %9, label %10, label %11

10:                                               ; preds = %8
  store i32 2, ptr %0, align 4, !tbaa !6
  br label %11

11:                                               ; preds = %5, %.thread17, %.thread14, %.thread12, %8, %10, %6
  %.1 = phi i1 [ false, %6 ], [ true, %10 ], [ true, %8 ], [ true, %.thread12 ], [ true, %.thread14 ], [ true, %.thread17 ], [ false, %5 ]
  ret i1 %.1
}